target datalayout = "e-m:e-p270:32:32-p271:32:32-p272:64:64-i64:64-i128:128-f80:128-n8:16:32:64-S128"
target triple = "x86_64-pc-linux-gnu"

%struct._lv_fpoint_t = type { float, float }
%struct._lv_vector_draw_dsc_t = type { %struct._lv_vector_fill_dsc_t, %struct._lv_vector_stroke_dsc_t, %struct._lv_matrix_t, i32, %struct.lv_area_t }
%struct._lv_vector_fill_dsc_t = type { i32, %struct.lv_color32_t, i8, i32, %struct._lv_draw_image_dsc_t, %struct._lv_vector_gradient_t, %struct._lv_matrix_t }
%struct.lv_color32_t = type { i8, i8, i8, i8 }
%struct._lv_draw_image_dsc_t = type { %struct.lv_draw_dsc_base_t, ptr, %struct.lv_image_header_t, i32, i32, i32, i32, i32, %struct.lv_point_t, %struct.lv_color_t, i8, i8, i8, ptr, %struct.lv_area_t, i32, ptr }
%struct.lv_draw_dsc_base_t = type { ptr, i32, i32, i32, ptr, i64, ptr }
%struct.lv_image_header_t = type <{ i64, i32 }>
%struct.lv_point_t = type { i32, i32 }
%struct.lv_color_t = type { i8, i8, i8 }
%struct._lv_vector_gradient_t = type { i32, [2 x %struct.lv_gradient_stop_t], i16, float, float, float, float, float, float, float, i32 }
%struct.lv_gradient_stop_t = type { %struct.lv_color_t, i8, i8 }
%struct._lv_vector_stroke_dsc_t = type { i32, %struct.lv_color32_t, i8, float, %struct._lv_array_t, i32, i32, i16, %struct._lv_vector_gradient_t, %struct._lv_matrix_t }
%struct._lv_array_t = type { ptr, i32, i32, i32, i8 }
%struct._lv_matrix_t = type { [3 x [3 x float]] }
%struct.lv_area_t = type { i32, i32, i32, i32 }
%struct._lv_svg_render_obj = type { ptr, i32, ptr, %struct._lv_vector_draw_dsc_t, %struct._lv_matrix_t, ptr, ptr, ptr, ptr, ptr, ptr, ptr, ptr, ptr }
%struct.lv_svg_render_poly_t = type { %struct._lv_svg_render_obj, ptr, %struct.lv_area_t }
%struct.lv_svg_attr_t = type { i8, i8, i8, %union.lv_svg_attr_value_t }
%union.lv_svg_attr_value_t = type { ptr }
%struct.lv_svg_attr_values_list_t = type { i32, [1 x i8] }
%struct.lv_svg_point_t = type { float, float }

; Function Attrs: nounwind uwtable
define internal void @_set_polyline_attr(ptr noundef %0, ptr noundef %1, ptr noundef %2) #0 {
  %4 = alloca ptr, align 8
  %5 = alloca ptr, align 8
  %6 = alloca ptr, align 8
  %7 = alloca ptr, align 8
  %8 = alloca ptr, align 8
  %9 = alloca i32, align 4
  %10 = alloca ptr, align 8
  %11 = alloca %struct._lv_fpoint_t, align 4
  %12 = alloca i32, align 4
  store ptr %0, ptr %4, align 8, !tbaa !3
  store ptr %1, ptr %5, align 8, !tbaa !3
  store ptr %2, ptr %6, align 8, !tbaa !3
  %13 = load ptr, ptr %4, align 8, !tbaa !3
  %14 = load ptr, ptr %5, align 8, !tbaa !3
  %15 = load ptr, ptr %6, align 8, !tbaa !3
  call void @_set_attr(ptr noundef %13, ptr noundef %14, ptr noundef %15)
  call void @llvm.lifetime.start.p0(i64 8, ptr %7) #8
  %16 = load ptr, ptr %4, align 8, !tbaa !3
  store ptr %16, ptr %7, align 8, !tbaa !3
  %17 = load ptr, ptr %6, align 8, !tbaa !3
  %18 = getelementptr inbounds nuw %struct.lv_svg_attr_t, ptr %17, i32 0, i32 0
  %19 = load i8, ptr %18, align 8, !tbaa !154
  %20 = zext i8 %19 to i32
  %21 = icmp eq i32 %20, 24
  br i1 %21, label %22, label %224

22:                                               ; preds = %3
  %23 = load ptr, ptr %7, align 8, !tbaa !3
  %24 = getelementptr inbounds nuw %struct.lv_svg_render_poly_t, ptr %23, i32 0, i32 1
  %25 = load ptr, ptr %24, align 8, !tbaa !180
  call void @lv_vector_path_clear(ptr noundef %25)
  call void @llvm.lifetime.start.p0(i64 8, ptr %8) #8
  %26 = load ptr, ptr %6, align 8, !tbaa !3
  %27 = getelementptr inbounds nuw %struct.lv_svg_attr_t, ptr %26, i32 0, i32 3
  %28 = load ptr, ptr %27, align 8, !tbaa !79
  store ptr %28, ptr %8, align 8, !tbaa !3
  call void @llvm.lifetime.start.p0(i64 4, ptr %9) #8
  %29 = load ptr, ptr %8, align 8, !tbaa !3
  %30 = getelementptr inbounds nuw %struct.lv_svg_attr_values_list_t, ptr %29, i32 0, i32 0
  %31 = load i32, ptr %30, align 4, !tbaa !181
  store i32 %31, ptr %9, align 4, !tbaa !8
  call void @llvm.lifetime.start.p0(i64 8, ptr %10) #8
  %32 = load ptr, ptr %8, align 8, !tbaa !3
  %33 = getelementptr inbounds nuw %struct.lv_svg_attr_values_list_t, ptr %32, i32 0, i32 1
  store ptr %33, ptr %10, align 8, !tbaa !3
  br label %34

34:                                               ; preds = %22
  %35 = load ptr, ptr %10, align 8, !tbaa !3
  %36 = getelementptr inbounds %struct.lv_svg_point_t, ptr %35, i64 0
  %37 = getelementptr inbounds nuw %struct.lv_svg_point_t, ptr %36, i32 0, i32 0
  %38 = load float, ptr %37, align 4, !tbaa !183
  %39 = load ptr, ptr %7, align 8, !tbaa !3
  %40 = getelementptr inbounds nuw %struct.lv_svg_render_poly_t, ptr %39, i32 0, i32 2
  %41 = getelementptr inbounds nuw %struct.lv_area_t, ptr %40, i32 0, i32 0
  %42 = load i32, ptr %41, align 8, !tbaa !185
  %43 = sitofp i32 %42 to float
  %44 = fcmp olt float %38, %43
  br i1 %44, label %45, label %54

45:                                               ; preds = %34
  %46 = load ptr, ptr %10, align 8, !tbaa !3
  %47 = getelementptr inbounds %struct.lv_svg_point_t, ptr %46, i64 0
  %48 = getelementptr inbounds nuw %struct.lv_svg_point_t, ptr %47, i32 0, i32 0
  %49 = load float, ptr %48, align 4, !tbaa !183
  %50 = fptosi float %49 to i32
  %51 = load ptr, ptr %7, align 8, !tbaa !3
  %52 = getelementptr inbounds nuw %struct.lv_svg_render_poly_t, ptr %51, i32 0, i32 2
  %53 = getelementptr inbounds nuw %struct.lv_area_t, ptr %52, i32 0, i32 0
  store i32 %50, ptr %53, align 8, !tbaa !185
  br label %54

54:                                               ; preds = %45, %34
  %55 = load ptr, ptr %10, align 8, !tbaa !3
  %56 = getelementptr inbounds %struct.lv_svg_point_t, ptr %55, i64 0
  %57 = getelementptr inbounds nuw %struct.lv_svg_point_t, ptr %56, i32 0, i32 1
  %58 = load float, ptr %57, align 4, !tbaa !186
  %59 = load ptr, ptr %7, align 8, !tbaa !3
  %60 = getelementptr inbounds nuw %struct.lv_svg_render_poly_t, ptr %59, i32 0, i32 2
  %61 = getelementptr inbounds nuw %struct.lv_area_t, ptr %60, i32 0, i32 1
  %62 = load i32, ptr %61, align 4, !tbaa !187
  %63 = sitofp i32 %62 to float
  %64 = fcmp olt float %58, %63
  br i1 %64, label %65, label %74

65:                                               ; preds = %54
  %66 = load ptr, ptr %10, align 8, !tbaa !3
  %67 = getelementptr inbounds %struct.lv_svg_point_t, ptr %66, i64 0
  %68 = getelementptr inbounds nuw %struct.lv_svg_point_t, ptr %67, i32 0, i32 1
  %69 = load float, ptr %68, align 4, !tbaa !186
  %70 = fptosi float %69 to i32
  %71 = load ptr, ptr %7, align 8, !tbaa !3
  %72 = getelementptr inbounds nuw %struct.lv_svg_render_poly_t, ptr %71, i32 0, i32 2
  %73 = getelementptr inbounds nuw %struct.lv_area_t, ptr %72, i32 0, i32 1
  store i32 %70, ptr %73, align 4, !tbaa !187
  br label %74

74:                                               ; preds = %65, %54
  %75 = load ptr, ptr %10, align 8, !tbaa !3
  %76 = getelementptr inbounds %struct.lv_svg_point_t, ptr %75, i64 0
  %77 = getelementptr inbounds nuw %struct.lv_svg_point_t, ptr %76, i32 0, i32 0
  %78 = load float, ptr %77, align 4, !tbaa !183
  %79 = load ptr, ptr %7, align 8, !tbaa !3
  %80 = getelementptr inbounds nuw %struct.lv_svg_render_poly_t, ptr %79, i32 0, i32 2
  %81 = getelementptr inbounds nuw %struct.lv_area_t, ptr %80, i32 0, i32 2
  %82 = load i32, ptr %81, align 8, !tbaa !188
  %83 = sitofp i32 %82 to float
  %84 = fcmp ogt float %78, %83
  br i1 %84, label %85, label %94

85:                                               ; preds = %74
  %86 = load ptr, ptr %10, align 8, !tbaa !3
  %87 = getelementptr inbounds %struct.lv_svg_point_t, ptr %86, i64 0
  %88 = getelementptr inbounds nuw %struct.lv_svg_point_t, ptr %87, i32 0, i32 0
  %89 = load float, ptr %88, align 4, !tbaa !183
  %90 = fptosi float %89 to i32
  %91 = load ptr, ptr %7, align 8, !tbaa !3
  %92 = getelementptr inbounds nuw %struct.lv_svg_render_poly_t, ptr %91, i32 0, i32 2
  %93 = getelementptr inbounds nuw %struct.lv_area_t, ptr %92, i32 0, i32 2
  store i32 %90, ptr %93, align 8, !tbaa !188
  br label %94

94:                                               ; preds = %85, %74
  %95 = load ptr, ptr %10, align 8, !tbaa !3
  %96 = getelementptr inbounds %struct.lv_svg_point_t, ptr %95, i64 0
  %97 = getelementptr inbounds nuw %struct.lv_svg_point_t, ptr %96, i32 0, i32 1
  %98 = load float, ptr %97, align 4, !tbaa !186
  %99 = load ptr, ptr %7, align 8, !tbaa !3
  %100 = getelementptr inbounds nuw %struct.lv_svg_render_poly_t, ptr %99, i32 0, i32 2
  %101 = getelementptr inbounds nuw %struct.lv_area_t, ptr %100, i32 0, i32 3
  %102 = load i32, ptr %101, align 4, !tbaa !189
  %103 = sitofp i32 %102 to float
  %104 = fcmp ogt float %98, %103
  br i1 %104, label %105, label %114

105:                                              ; preds = %94
  %106 = load ptr, ptr %10, align 8, !tbaa !3
  %107 = getelementptr inbounds %struct.lv_svg_point_t, ptr %106, i64 0
  %108 = getelementptr inbounds nuw %struct.lv_svg_point_t, ptr %107, i32 0, i32 1
  %109 = load float, ptr %108, align 4, !tbaa !186
  %110 = fptosi float %109 to i32
  %111 = load ptr, ptr %7, align 8, !tbaa !3
  %112 = getelementptr inbounds nuw %struct.lv_svg_render_poly_t, ptr %111, i32 0, i32 2
  %113 = getelementptr inbounds nuw %struct.lv_area_t, ptr %112, i32 0, i32 3
  store i32 %110, ptr %113, align 4, !tbaa !189
  br label %114

114:                                              ; preds = %105, %94
  br label %115

115:                                              ; preds = %114
  br label %116

116:                                              ; preds = %115
  call void @llvm.lifetime.start.p0(i64 8, ptr %11) #8
  %117 = getelementptr inbounds nuw %struct._lv_fpoint_t, ptr %11, i32 0, i32 0
  %118 = load ptr, ptr %10, align 8, !tbaa !3
  %119 = getelementptr inbounds %struct.lv_svg_point_t, ptr %118, i64 0
  %120 = getelementptr inbounds nuw %struct.lv_svg_point_t, ptr %119, i32 0, i32 0
  %121 = load float, ptr %120, align 4, !tbaa !183
  store float %121, ptr %117, align 4, !tbaa !15
  %122 = getelementptr inbounds nuw %struct._lv_fpoint_t, ptr %11, i32 0, i32 1
  %123 = load ptr, ptr %10, align 8, !tbaa !3
  %124 = getelementptr inbounds %struct.lv_svg_point_t, ptr %123, i64 0
  %125 = getelementptr inbounds nuw %struct.lv_svg_point_t, ptr %124, i32 0, i32 1
  %126 = load float, ptr %125, align 4, !tbaa !186
  store float %126, ptr %122, align 4, !tbaa !19
  %127 = load ptr, ptr %7, align 8, !tbaa !3
  %128 = getelementptr inbounds nuw %struct.lv_svg_render_poly_t, ptr %127, i32 0, i32 1
  %129 = load ptr, ptr %128, align 8, !tbaa !180
  call void @lv_vector_path_move_to(ptr noundef %129, ptr noundef %11)
  call void @llvm.lifetime.start.p0(i64 4, ptr %12) #8
  store i32 1, ptr %12, align 4, !tbaa !8
  br label %130

130:                                              ; preds = %220, %116
  %131 = load i32, ptr %12, align 4, !tbaa !8
  %132 = load i32, ptr %9, align 4, !tbaa !8
  %133 = icmp ult i32 %131, %132
  br i1 %133, label %135, label %134

134:                                              ; preds = %130
  call void @llvm.lifetime.end.p0(i64 4, ptr %12) #8
  br label %223

135:                                              ; preds = %130
  %136 = load ptr, ptr %10, align 8, !tbaa !3
  %137 = load i32, ptr %12, align 4, !tbaa !8
  %138 = zext i32 %137 to i64
  %139 = getelementptr inbounds nuw %struct.lv_svg_point_t, ptr %136, i64 %138
  %140 = getelementptr inbounds nuw %struct.lv_svg_point_t, ptr %139, i32 0, i32 0
  %141 = load float, ptr %140, align 4, !tbaa !183
  %142 = getelementptr inbounds nuw %struct._lv_fpoint_t, ptr %11, i32 0, i32 0
  store float %141, ptr %142, align 4, !tbaa !15
  %143 = load ptr, ptr %10, align 8, !tbaa !3
  %144 = load i32, ptr %12, align 4, !tbaa !8
  %145 = zext i32 %144 to i64
  %146 = getelementptr inbounds nuw %struct.lv_svg_point_t, ptr %143, i64 %145
  %147 = getelementptr inbounds nuw %struct.lv_svg_point_t, ptr %146, i32 0, i32 1
  %148 = load float, ptr %147, align 4, !tbaa !186
  %149 = getelementptr inbounds nuw %struct._lv_fpoint_t, ptr %11, i32 0, i32 1
  store float %148, ptr %149, align 4, !tbaa !19
  %150 = load ptr, ptr %7, align 8, !tbaa !3
  %151 = getelementptr inbounds nuw %struct.lv_svg_render_poly_t, ptr %150, i32 0, i32 1
  %152 = load ptr, ptr %151, align 8, !tbaa !180
  call void @lv_vector_path_line_to(ptr noundef %152, ptr noundef %11)
  br label %153

153:                                              ; preds = %135
  %154 = getelementptr inbounds nuw %struct._lv_fpoint_t, ptr %11, i32 0, i32 0
  %155 = load float, ptr %154, align 4, !tbaa !15
  %156 = load ptr, ptr %7, align 8, !tbaa !3
  %157 = getelementptr inbounds nuw %struct.lv_svg_render_poly_t, ptr %156, i32 0, i32 2
  %158 = getelementptr inbounds nuw %struct.lv_area_t, ptr %157, i32 0, i32 0
  %159 = load i32, ptr %158, align 8, !tbaa !185
  %160 = sitofp i32 %159 to float
  %161 = fcmp olt float %155, %160
  br i1 %161, label %162, label %169

162:                                              ; preds = %153
  %163 = getelementptr inbounds nuw %struct._lv_fpoint_t, ptr %11, i32 0, i32 0
  %164 = load float, ptr %163, align 4, !tbaa !15
  %165 = fptosi float %164 to i32
  %166 = load ptr, ptr %7, align 8, !tbaa !3
  %167 = getelementptr inbounds nuw %struct.lv_svg_render_poly_t, ptr %166, i32 0, i32 2
  %168 = getelementptr inbounds nuw %struct.lv_area_t, ptr %167, i32 0, i32 0
  store i32 %165, ptr %168, align 8, !tbaa !185
  br label %169

169:                                              ; preds = %162, %153
  %170 = getelementptr inbounds nuw %struct._lv_fpoint_t, ptr %11, i32 0, i32 1
  %171 = load float, ptr %170, align 4, !tbaa !19
  %172 = load ptr, ptr %7, align 8, !tbaa !3
  %173 = getelementptr inbounds nuw %struct.lv_svg_render_poly_t, ptr %172, i32 0, i32 2
  %174 = getelementptr inbounds nuw %struct.lv_area_t, ptr %173, i32 0, i32 1
  %175 = load i32, ptr %174, align 4, !tbaa !187
  %176 = sitofp i32 %175 to float
  %177 = fcmp olt float %171, %176
  br i1 %177, label %178, label %185

178:                                              ; preds = %169
  %179 = getelementptr inbounds nuw %struct._lv_fpoint_t, ptr %11, i32 0, i32 1
  %180 = load float, ptr %179, align 4, !tbaa !19
  %181 = fptosi float %180 to i32
  %182 = load ptr, ptr %7, align 8, !tbaa !3
  %183 = getelementptr inbounds nuw %struct.lv_svg_render_poly_t, ptr %182, i32 0, i32 2
  %184 = getelementptr inbounds nuw %struct.lv_area_t, ptr %183, i32 0, i32 1
  store i32 %181, ptr %184, align 4, !tbaa !187
  br label %185

185:                                              ; preds = %178, %169
  %186 = getelementptr inbounds nuw %struct._lv_fpoint_t, ptr %11, i32 0, i32 0
  %187 = load float, ptr %186, align 4, !tbaa !15
  %188 = load ptr, ptr %7, align 8, !tbaa !3
  %189 = getelementptr inbounds nuw %struct.lv_svg_render_poly_t, ptr %188, i32 0, i32 2
  %190 = getelementptr inbounds nuw %struct.lv_area_t, ptr %189, i32 0, i32 2
  %191 = load i32, ptr %190, align 8, !tbaa !188
  %192 = sitofp i32 %191 to float
  %193 = fcmp ogt float %187, %192
  br i1 %193, label %194, label %201

194:                                              ; preds = %185
  %195 = getelementptr inbounds nuw %struct._lv_fpoint_t, ptr %11, i32 0, i32 0
  %196 = load float, ptr %195, align 4, !tbaa !15
  %197 = fptosi float %196 to i32
  %198 = load ptr, ptr %7, align 8, !tbaa !3
  %199 = getelementptr inbounds nuw %struct.lv_svg_render_poly_t, ptr %198, i32 0, i32 2
  %200 = getelementptr inbounds nuw %struct.lv_area_t, ptr %199, i32 0, i32 2
  store i32 %197, ptr %200, align 8, !tbaa !188
  br label %201

201:                                              ; preds = %194, %185
  %202 = getelementptr inbounds nuw %struct._lv_fpoint_t, ptr %11, i32 0, i32 1
  %203 = load float, ptr %202, align 4, !tbaa !19
  %204 = load ptr, ptr %7, align 8, !tbaa !3
  %205 = getelementptr inbounds nuw %struct.lv_svg_render_poly_t, ptr %204, i32 0, i32 2
  %206 = getelementptr inbounds nuw %struct.lv_area_t, ptr %205, i32 0, i32 3
  %207 = load i32, ptr %206, align 4, !tbaa !189
  %208 = sitofp i32 %207 to float
  %209 = fcmp ogt float %203, %208
  br i1 %209, label %210, label %217

210:                                              ; preds = %201
  %211 = getelementptr inbounds nuw %struct._lv_fpoint_t, ptr %11, i32 0, i32 1
  %212 = load float, ptr %211, align 4, !tbaa !19
  %213 = fptosi float %212 to i32
  %214 = load ptr, ptr %7, align 8, !tbaa !3
  %215 = getelementptr inbounds nuw %struct.lv_svg_render_poly_t, ptr %214, i32 0, i32 2
  %216 = getelementptr inbounds nuw %struct.lv_area_t, ptr %215, i32 0, i32 3
  store i32 %213, ptr %216, align 4, !tbaa !189
  br label %217

217:                                              ; preds = %210, %201
  br label %218

218:                                              ; preds = %217
  br label %219

219:                                              ; preds = %218
  br label %220

220:                                              ; preds = %219
  %221 = load i32, ptr %12, align 4, !tbaa !8
  %222 = add i32 %221, 1
  store i32 %222, ptr %12, align 4, !tbaa !8
  br label %130, !llvm.loop !190

223:                                              ; preds = %134
  call void @llvm.lifetime.end.p0(i64 8, ptr %11) #8
  call void @llvm.lifetime.end.p0(i64 8, ptr %10) #8
  call void @llvm.lifetime.end.p0(i64 4, ptr %9) #8
  call void @llvm.lifetime.end.p0(i64 8, ptr %8) #8
  br label %224

224:                                              ; preds = %223, %3
  call void @llvm.lifetime.end.p0(i64 8, ptr %7) #8
  ret void
}