; Function Attrs: nounwind uwtable
define internal void @_set_polyline_attr(ptr noundef %0, ptr noundef %1, ptr nocapture noundef readonly %2) #0 {
  %4 = alloca %struct._lv_fpoint_t, align 4
  tail call void @_set_attr(ptr noundef %0, ptr noundef %1, ptr noundef %2)
  %5 = load i8, ptr %2, align 8, !tbaa !163
  %6 = icmp eq i8 %5, 24
  br i1 %6, label %7, label %79

7:                                                ; preds = %3
  %8 = getelementptr inbounds nuw i8, ptr %0, i64 576
  %9 = load ptr, ptr %8, align 8, !tbaa !186
  tail call void @lv_vector_path_clear(ptr noundef %9) #9
  %10 = getelementptr inbounds nuw i8, ptr %2, i64 8
  %11 = load ptr, ptr %10, align 8, !tbaa !165
  %12 = load i32, ptr %11, align 4, !tbaa !187
  %13 = getelementptr inbounds nuw i8, ptr %11, i64 4
  %14 = load float, ptr %13, align 4, !tbaa !189
  %15 = getelementptr inbounds nuw i8, ptr %0, i64 584
  %16 = load i32, ptr %15, align 8, !tbaa !191
  %17 = sitofp i32 %16 to float
  %18 = fcmp olt float %14, %17
  br i1 %18, label %19, label %21

19:                                               ; preds = %7
  %20 = fptosi float %14 to i32
  store i32 %20, ptr %15, align 8, !tbaa !191
  br label %21

21:                                               ; preds = %19, %7
  %22 = getelementptr inbounds nuw i8, ptr %11, i64 8
  %23 = load float, ptr %22, align 4, !tbaa !192
  %24 = getelementptr inbounds nuw i8, ptr %0, i64 588
  %25 = load i32, ptr %24, align 4, !tbaa !193
  %26 = sitofp i32 %25 to float
  %27 = fcmp olt float %23, %26
  br i1 %27, label %28, label %30

28:                                               ; preds = %21
  %29 = fptosi float %23 to i32
  store i32 %29, ptr %24, align 4, !tbaa !193
  br label %30

30:                                               ; preds = %28, %21
  %31 = getelementptr inbounds nuw i8, ptr %0, i64 592
  %32 = load i32, ptr %31, align 8, !tbaa !194
  %33 = sitofp i32 %32 to float
  %34 = fcmp ogt float %14, %33
  br i1 %34, label %35, label %37

35:                                               ; preds = %30
  %36 = fptosi float %14 to i32
  store i32 %36, ptr %31, align 8, !tbaa !194
  br label %37

37:                                               ; preds = %35, %30
  %38 = getelementptr inbounds nuw i8, ptr %0, i64 596
  %39 = load i32, ptr %38, align 4, !tbaa !195
  %40 = sitofp i32 %39 to float
  %41 = fcmp ogt float %23, %40
  br i1 %41, label %42, label %44

42:                                               ; preds = %37
  %43 = fptosi float %23 to i32
  store i32 %43, ptr %38, align 4, !tbaa !195
  br label %44

44:                                               ; preds = %42, %37
  call void @llvm.lifetime.start.p0(i64 8, ptr nonnull %4) #9
  store float %14, ptr %4, align 4, !tbaa !14
  %45 = getelementptr inbounds nuw i8, ptr %4, i64 4
  store float %23, ptr %45, align 4, !tbaa !18
  %46 = load ptr, ptr %8, align 8, !tbaa !186
  call void @lv_vector_path_move_to(ptr noundef %46, ptr noundef nonnull %4) #9
  %47 = icmp ugt i32 %12, 1
  br i1 %47, label %.lr.ph.preheader, label %._crit_edge

.lr.ph.preheader:                                 ; preds = %44
  %wide.trip.count = zext i32 %12 to i64
  br label %.lr.ph

._crit_edge:                                      ; preds = %78, %44
  call void @llvm.lifetime.end.p0(i64 8, ptr nonnull %4) #9
  br label %79

.lr.ph:                                           ; preds = %.lr.ph.preheader, %78
  %indvars.iv = phi i64 [ 1, %.lr.ph.preheader ], [ %indvars.iv.next, %78 ]
  %48 = getelementptr inbounds nuw %struct.lv_svg_point_t, ptr %13, i64 %indvars.iv
  %49 = load float, ptr %48, align 4, !tbaa !189
  store float %49, ptr %4, align 4, !tbaa !14
  %50 = getelementptr inbounds nuw i8, ptr %48, i64 4
  %51 = load float, ptr %50, align 4, !tbaa !192
  store float %51, ptr %45, align 4, !tbaa !18
  %52 = load ptr, ptr %8, align 8, !tbaa !186
  call void @lv_vector_path_line_to(ptr noundef %52, ptr noundef nonnull %4) #9
  %53 = load float, ptr %4, align 4, !tbaa !14
  %54 = load i32, ptr %15, align 8, !tbaa !191
  %55 = sitofp i32 %54 to float
  %56 = fcmp olt float %53, %55
  br i1 %56, label %57, label %59

57:                                               ; preds = %.lr.ph
  %58 = fptosi float %53 to i32
  store i32 %58, ptr %15, align 8, !tbaa !191
  br label %59

59:                                               ; preds = %57, %.lr.ph
  %60 = load float, ptr %45, align 4, !tbaa !18
  %61 = load i32, ptr %24, align 4, !tbaa !193
  %62 = sitofp i32 %61 to float
  %63 = fcmp olt float %60, %62
  br i1 %63, label %64, label %66

64:                                               ; preds = %59
  %65 = fptosi float %60 to i32
  store i32 %65, ptr %24, align 4, !tbaa !193
  br label %66

66:                                               ; preds = %64, %59
  %67 = load i32, ptr %31, align 8, !tbaa !194
  %68 = sitofp i32 %67 to float
  %69 = fcmp ogt float %53, %68
  br i1 %69, label %70, label %72

70:                                               ; preds = %66
  %71 = fptosi float %53 to i32
  store i32 %71, ptr %31, align 8, !tbaa !194
  br label %72

72:                                               ; preds = %70, %66
  %73 = load i32, ptr %38, align 4, !tbaa !195
  %74 = sitofp i32 %73 to float
  %75 = fcmp ogt float %60, %74
  br i1 %75, label %76, label %78

76:                                               ; preds = %72
  %77 = fptosi float %60 to i32
  store i32 %77, ptr %38, align 4, !tbaa !195
  br label %78

78:                                               ; preds = %72, %76
  %indvars.iv.next = add nuw nsw i64 %indvars.iv, 1
  %exitcond.not = icmp eq i64 %indvars.iv.next, %wide.trip.count
  br i1 %exitcond.not, label %._crit_edge, label %.lr.ph, !llvm.loop !196

79:                                               ; preds = %._crit_edge, %3
  ret void
}